; Function Attrs: mustprogress nounwind uwtable
define dso_local void @_ZN5clang16ExprWithCleanupsC2EPNS_4ExprEbN4llvm8ArrayRefINS3_12PointerUnionIJPNS_9BlockDeclEPNS_19CompoundLiteralExprEEEEEE(ptr noundef nonnull align 8 dereferenceable(24) initializes((0, 1), (8, 24)) %0, ptr noundef %1, i1 noundef zeroext %2, ptr readonly captures(none) %3, i64 %4) unnamed_addr #4 align 2 {
  %6 = getelementptr inbounds nuw i8, ptr %1, i64 8
  %.sroa.0.0.copyload.i.i = load i64, ptr %6, align 8
  %7 = getelementptr inbounds nuw i8, ptr %1, i64 1
  %8 = load i16, ptr %7, align 1
  store i8 60, ptr %0, align 8
  %9 = load i8, ptr @_ZN5clang4Stmt17StatisticsEnabledE, align 1
  %10 = trunc i8 %9 to i1
  br i1 %10, label %11, label %_ZN5clang8FullExprC2ENS_4Stmt9StmtClassEPNS_4ExprE.exit

11:                                               ; preds = %5
  tail call void @_ZN5clang4Stmt12addStmtClassENS0_9StmtClassE(i32 noundef 60) #16
  br label %_ZN5clang8FullExprC2ENS_4Stmt9StmtClassEPNS_4ExprE.exit

_ZN5clang8FullExprC2ENS_4Stmt9StmtClassEPNS_4ExprE.exit: ; preds = %5, %11
  %12 = getelementptr inbounds nuw i8, ptr %0, i64 8
  %13 = getelementptr inbounds nuw i8, ptr %0, i64 1
  %14 = load i16, ptr %13, align 1
  %15 = and i16 %14, -1024
  %16 = and i16 %8, 31
  %17 = or disjoint i16 %15, %16
  store i16 %17, ptr %13, align 1
  store i64 %.sroa.0.0.copyload.i.i, ptr %12, align 8
  %18 = getelementptr inbounds nuw i8, ptr %0, i64 16
  store ptr %1, ptr %18, align 8
  %19 = tail call noundef zeroext i8 @_ZN5clang17computeDependenceEPNS_8FullExprE(ptr noundef nonnull align 8 dereferenceable(24) %0) #16
  %20 = load i16, ptr %13, align 1
  %21 = and i8 %19, 31
  %22 = zext nneg i8 %21 to i16
  %23 = shl nuw nsw i16 %22, 5
  %24 = and i16 %20, -993
  %25 = or disjoint i16 %23, %24
  store i16 %25, ptr %13, align 1
  %26 = load i32, ptr %0, align 8
  %27 = select i1 %2, i32 262144, i32 0
  %28 = and i32 %26, 262143
  %29 = or disjoint i32 %27, %28
  %30 = trunc i64 %4 to i32
  %31 = shl i32 %30, 19
  %32 = or disjoint i32 %29, %31
  store i32 %32, ptr %0, align 8
  %.not8 = icmp eq i32 %30, 0
  br i1 %.not8, label %._crit_edge, label %.lr.ph

.lr.ph:                                           ; preds = %_ZN5clang8FullExprC2ENS_4Stmt9StmtClassEPNS_4ExprE.exit
  %33 = getelementptr inbounds nuw i8, ptr %0, i64 24
  %34 = and i64 %4, 4294967295
  br label %35

35:                                               ; preds = %.lr.ph, %35
  %indvars.iv = phi i64 [ 0, %.lr.ph ], [ %indvars.iv.next, %35 ]
  %36 = getelementptr inbounds nuw %"class.llvm::PointerUnion.537", ptr %3, i64 %indvars.iv
  %37 = getelementptr inbounds nuw %"class.llvm::PointerUnion.537", ptr %33, i64 %indvars.iv
  %38 = load i64, ptr %36, align 8
  store i64 %38, ptr %37, align 8
  %indvars.iv.next = add nuw nsw i64 %indvars.iv, 1
  %.not = icmp eq i64 %indvars.iv.next, %34
  br i1 %.not, label %._crit_edge, label %35, !llvm.loop !12

._crit_edge:                                      ; preds = %35, %_ZN5clang8FullExprC2ENS_4Stmt9StmtClassEPNS_4ExprE.exit
  ret void
}